target datalayout = "e-m:e-p270:32:32-p271:32:32-p272:64:64-i64:64-i128:128-f80:128-n8:16:32:64-S128"
target triple = "x86_64-pc-linux-gnu"

%struct.jv = type { i8, i8, i16, i32, %union.anon }
%union.anon = type { ptr }

; Function Attrs: nounwind uwtable
define dso_local { i64, ptr } @jv_keys_unsorted(i64 %0, ptr %1) #0 {
  %3 = alloca %struct.jv, align 8
  %4 = alloca %struct.jv, align 8
  %5 = alloca %struct.jv, align 8
  %6 = alloca i32, align 4
  %7 = alloca i32, align 4
  %8 = alloca i32, align 4
  %9 = alloca %struct.jv, align 8
  %10 = alloca %struct.jv, align 8
  %11 = alloca %struct.jv, align 8
  %12 = alloca i1, align 1
  %13 = alloca %struct.jv, align 8
  %14 = alloca i1, align 1
  %15 = alloca %struct.jv, align 8
  %16 = getelementptr inbounds nuw { i64, ptr }, ptr %4, i32 0, i32 0
  store i64 %0, ptr %16, align 8
  %17 = getelementptr inbounds nuw { i64, ptr }, ptr %4, i32 0, i32 1
  store ptr %1, ptr %17, align 8
  %18 = getelementptr inbounds nuw { i64, ptr }, ptr %4, i32 0, i32 0
  %19 = load i64, ptr %18, align 8
  %20 = getelementptr inbounds nuw { i64, ptr }, ptr %4, i32 0, i32 1
  %21 = load ptr, ptr %20, align 8
  %22 = call i32 @jv_get_kind(i64 %19, ptr %21)
  %23 = icmp ne i32 %22, 7
  br i1 %23, label %24, label %34

24:                                               ; preds = %2
  %25 = getelementptr inbounds nuw { i64, ptr }, ptr %4, i32 0, i32 0
  %26 = load i64, ptr %25, align 8
  %27 = getelementptr inbounds nuw { i64, ptr }, ptr %4, i32 0, i32 1
  %28 = load ptr, ptr %27, align 8
  %29 = call { i64, ptr } @jv_keys(i64 %26, ptr %28)
  %30 = getelementptr inbounds nuw { i64, ptr }, ptr %3, i32 0, i32 0
  %31 = extractvalue { i64, ptr } %29, 0
  store i64 %31, ptr %30, align 8
  %32 = getelementptr inbounds nuw { i64, ptr }, ptr %3, i32 0, i32 1
  %33 = extractvalue { i64, ptr } %29, 1
  store ptr %33, ptr %32, align 8
  br label %130

34:                                               ; preds = %2
  %35 = getelementptr inbounds nuw { i64, ptr }, ptr %4, i32 0, i32 0
  %36 = load i64, ptr %35, align 8
  %37 = getelementptr inbounds nuw { i64, ptr }, ptr %4, i32 0, i32 1
  %38 = load ptr, ptr %37, align 8
  %39 = call { i64, ptr } @jv_copy(i64 %36, ptr %38)
  %40 = getelementptr inbounds nuw { i64, ptr }, ptr %5, i32 0, i32 0
  %41 = extractvalue { i64, ptr } %39, 0
  store i64 %41, ptr %40, align 8
  %42 = getelementptr inbounds nuw { i64, ptr }, ptr %5, i32 0, i32 1
  %43 = extractvalue { i64, ptr } %39, 1
  store ptr %43, ptr %42, align 8
  %44 = getelementptr inbounds nuw { i64, ptr }, ptr %5, i32 0, i32 0
  %45 = load i64, ptr %44, align 8
  %46 = getelementptr inbounds nuw { i64, ptr }, ptr %5, i32 0, i32 1
  %47 = load ptr, ptr %46, align 8
  %48 = call i32 @jv_object_length(i64 %45, ptr %47)
  %49 = call { i64, ptr } @jv_array_sized(i32 noundef %48)
  %50 = getelementptr inbounds nuw { i64, ptr }, ptr %3, i32 0, i32 0
  %51 = extractvalue { i64, ptr } %49, 0
  store i64 %51, ptr %50, align 8
  %52 = getelementptr inbounds nuw { i64, ptr }, ptr %3, i32 0, i32 1
  %53 = extractvalue { i64, ptr } %49, 1
  store ptr %53, ptr %52, align 8
  call void @llvm.lifetime.start.p0(i64 4, ptr %6) #6
  %54 = getelementptr inbounds nuw { i64, ptr }, ptr %4, i32 0, i32 0
  %55 = load i64, ptr %54, align 8
  %56 = getelementptr inbounds nuw { i64, ptr }, ptr %4, i32 0, i32 1
  %57 = load ptr, ptr %56, align 8
  %58 = call i32 @jv_object_iter(i64 %55, ptr %57)
  store i32 %58, ptr %6, align 4, !tbaa !10
  call void @llvm.lifetime.start.p0(i64 4, ptr %7) #6
  store i32 1, ptr %7, align 4, !tbaa !10
  br label %59

59:                                               ; preds = %124, %34
  %60 = load i32, ptr %7, align 4, !tbaa !10
  %61 = icmp ne i32 %60, 0
  br i1 %61, label %63, label %62

62:                                               ; preds = %59
  store i32 2, ptr %8, align 4
  call void @llvm.lifetime.end.p0(i64 4, ptr %7) #6
  call void @llvm.lifetime.end.p0(i64 4, ptr %6) #6
  br label %125

63:                                               ; preds = %59
  call void @llvm.lifetime.start.p0(i64 16, ptr %9) #6
  call void @llvm.lifetime.start.p0(i64 16, ptr %10) #6
  br label %64

64:                                               ; preds = %116, %63
  %65 = load i32, ptr %6, align 4, !tbaa !10
  %66 = getelementptr inbounds nuw { i64, ptr }, ptr %4, i32 0, i32 0
  %67 = load i64, ptr %66, align 8
  %68 = getelementptr inbounds nuw { i64, ptr }, ptr %4, i32 0, i32 1
  %69 = load ptr, ptr %68, align 8
  %70 = call i32 @jv_object_iter_valid(i64 %67, ptr %69, i32 noundef %65)
  %71 = icmp ne i32 %70, 0
  store i1 false, ptr %12, align 1
  store i1 false, ptr %14, align 1
  br i1 %71, label %72, label %93

72:                                               ; preds = %64
  call void @llvm.lifetime.start.p0(i64 16, ptr %11) #6
  store i1 true, ptr %12, align 1
  %73 = load i32, ptr %6, align 4, !tbaa !10
  %74 = getelementptr inbounds nuw { i64, ptr }, ptr %4, i32 0, i32 0
  %75 = load i64, ptr %74, align 8
  %76 = getelementptr inbounds nuw { i64, ptr }, ptr %4, i32 0, i32 1
  %77 = load ptr, ptr %76, align 8
  %78 = call { i64, ptr } @jv_object_iter_key(i64 %75, ptr %77, i32 noundef %73)
  %79 = getelementptr inbounds nuw { i64, ptr }, ptr %11, i32 0, i32 0
  %80 = extractvalue { i64, ptr } %78, 0
  store i64 %80, ptr %79, align 8
  %81 = getelementptr inbounds nuw { i64, ptr }, ptr %11, i32 0, i32 1
  %82 = extractvalue { i64, ptr } %78, 1
  store ptr %82, ptr %81, align 8
  call void @llvm.memcpy.p0.p0.i64(ptr align 8 %9, ptr align 8 %11, i64 16, i1 false), !tbaa.struct !4
  call void @llvm.lifetime.end.p0(i64 16, ptr %11) #6
  call void @llvm.lifetime.start.p0(i64 16, ptr %13) #6
  store i1 true, ptr %14, align 1
  %83 = load i32, ptr %6, align 4, !tbaa !10
  %84 = getelementptr inbounds nuw { i64, ptr }, ptr %4, i32 0, i32 0
  %85 = load i64, ptr %84, align 8
  %86 = getelementptr inbounds nuw { i64, ptr }, ptr %4, i32 0, i32 1
  %87 = load ptr, ptr %86, align 8
  %88 = call { i64, ptr } @jv_object_iter_value(i64 %85, ptr %87, i32 noundef %83)
  %89 = getelementptr inbounds nuw { i64, ptr }, ptr %13, i32 0, i32 0
  %90 = extractvalue { i64, ptr } %88, 0
  store i64 %90, ptr %89, align 8
  %91 = getelementptr inbounds nuw { i64, ptr }, ptr %13, i32 0, i32 1
  %92 = extractvalue { i64, ptr } %88, 1
  store ptr %92, ptr %91, align 8
  call void @llvm.memcpy.p0.p0.i64(ptr align 8 %10, ptr align 8 %13, i64 16, i1 false), !tbaa.struct !4
  call void @llvm.lifetime.end.p0(i64 16, ptr %13) #6
  br label %94

93:                                               ; preds = %64
  br label %94

94:                                               ; preds = %93, %72
  %95 = phi i32 [ 1, %72 ], [ 0, %93 ]
  %96 = icmp ne i32 %95, 0
  br i1 %96, label %98, label %97

97:                                               ; preds = %94
  store i32 5, ptr %8, align 4
  call void @llvm.lifetime.end.p0(i64 16, ptr %10) #6
  call void @llvm.lifetime.end.p0(i64 16, ptr %9) #6
  br label %123

98:                                               ; preds = %94
  call void @llvm.lifetime.start.p0(i64 16, ptr %15) #6
  %99 = getelementptr inbounds nuw { i64, ptr }, ptr %3, i32 0, i32 0
  %100 = load i64, ptr %99, align 8
  %101 = getelementptr inbounds nuw { i64, ptr }, ptr %3, i32 0, i32 1
  %102 = load ptr, ptr %101, align 8
  %103 = getelementptr inbounds nuw { i64, ptr }, ptr %9, i32 0, i32 0
  %104 = load i64, ptr %103, align 8
  %105 = getelementptr inbounds nuw { i64, ptr }, ptr %9, i32 0, i32 1
  %106 = load ptr, ptr %105, align 8
  %107 = call { i64, ptr } @jv_array_append(i64 %100, ptr %102, i64 %104, ptr %106)
  %108 = getelementptr inbounds nuw { i64, ptr }, ptr %15, i32 0, i32 0
  %109 = extractvalue { i64, ptr } %107, 0
  store i64 %109, ptr %108, align 8
  %110 = getelementptr inbounds nuw { i64, ptr }, ptr %15, i32 0, i32 1
  %111 = extractvalue { i64, ptr } %107, 1
  store ptr %111, ptr %110, align 8
  call void @llvm.memcpy.p0.p0.i64(ptr align 8 %3, ptr align 8 %15, i64 16, i1 false), !tbaa.struct !4
  call void @llvm.lifetime.end.p0(i64 16, ptr %15) #6
  %112 = getelementptr inbounds nuw { i64, ptr }, ptr %10, i32 0, i32 0
  %113 = load i64, ptr %112, align 8
  %114 = getelementptr inbounds nuw { i64, ptr }, ptr %10, i32 0, i32 1
  %115 = load ptr, ptr %114, align 8
  call void @jv_free(i64 %113, ptr %115)
  br label %116

116:                                              ; preds = %98
  %117 = load i32, ptr %6, align 4, !tbaa !10
  %118 = getelementptr inbounds nuw { i64, ptr }, ptr %4, i32 0, i32 0
  %119 = load i64, ptr %118, align 8
  %120 = getelementptr inbounds nuw { i64, ptr }, ptr %4, i32 0, i32 1
  %121 = load ptr, ptr %120, align 8
  %122 = call i32 @jv_object_iter_next(i64 %119, ptr %121, i32 noundef %117)
  store i32 %122, ptr %6, align 4, !tbaa !10
  br label %64, !llvm.loop !28

123:                                              ; preds = %97
  br label %124

124:                                              ; preds = %123
  store i32 0, ptr %7, align 4, !tbaa !10
  br label %59, !llvm.loop !29

125:                                              ; preds = %62
  %126 = getelementptr inbounds nuw { i64, ptr }, ptr %4, i32 0, i32 0
  %127 = load i64, ptr %126, align 8
  %128 = getelementptr inbounds nuw { i64, ptr }, ptr %4, i32 0, i32 1
  %129 = load ptr, ptr %128, align 8
  call void @jv_free(i64 %127, ptr %129)
  br label %130

130:                                              ; preds = %125, %24
  %131 = load { i64, ptr }, ptr %3, align 8
  ret { i64, ptr } %131
}