; Function Attrs: nounwind uwtable
define dso_local { i64, ptr } @jv_keys_unsorted(i64 %0, ptr %1) local_unnamed_addr #0 {
  %3 = tail call i32 @jv_get_kind(i64 %0, ptr %1) #6
  %.not = icmp eq i32 %3, 7
  br i1 %.not, label %.preheader, label %4

4:                                                ; preds = %2
  %5 = tail call { i64, ptr } @jv_keys(i64 %0, ptr %1)
  br label %22

.preheader:                                       ; preds = %2
  %6 = tail call { i64, ptr } @jv_copy(i64 %0, ptr %1) #6
  %7 = extractvalue { i64, ptr } %6, 0
  %8 = extractvalue { i64, ptr } %6, 1
  %9 = tail call i32 @jv_object_length(i64 %7, ptr %8) #6
  %10 = tail call { i64, ptr } @jv_array_sized(i32 noundef %9) #6
  %11 = tail call i32 @jv_object_iter(i64 %0, ptr %1) #6
  %12 = tail call i32 @jv_object_iter_valid(i64 %0, ptr %1, i32 noundef %11) #6
  %.not3545 = icmp eq i32 %12, 0
  br i1 %.not3545, label %.loopexit, label %.lr.ph

.loopexit:                                        ; preds = %.lr.ph, %.preheader
  %.merged = phi { i64, ptr } [ %10, %.preheader ], [ %19, %.lr.ph ]
  tail call void @jv_free(i64 %0, ptr %1) #6
  br label %22

.lr.ph:                                           ; preds = %.preheader, %.lr.ph
  %.pn = phi { i64, ptr } [ %19, %.lr.ph ], [ %10, %.preheader ]
  %.146 = phi i32 [ %20, %.lr.ph ], [ %11, %.preheader ]
  %.sroa.5.248 = extractvalue { i64, ptr } %.pn, 1
  %.sroa.031.247 = extractvalue { i64, ptr } %.pn, 0
  %13 = tail call { i64, ptr } @jv_object_iter_key(i64 %0, ptr %1, i32 noundef %.146) #6
  %14 = extractvalue { i64, ptr } %13, 0
  %15 = extractvalue { i64, ptr } %13, 1
  %16 = tail call { i64, ptr } @jv_object_iter_value(i64 %0, ptr %1, i32 noundef %.146) #6
  %17 = extractvalue { i64, ptr } %16, 0
  %18 = extractvalue { i64, ptr } %16, 1
  %19 = tail call { i64, ptr } @jv_array_append(i64 %.sroa.031.247, ptr %.sroa.5.248, i64 %14, ptr %15) #6
  tail call void @jv_free(i64 %17, ptr %18) #6
  %20 = tail call i32 @jv_object_iter_next(i64 %0, ptr %1, i32 noundef %.146) #6
  %21 = tail call i32 @jv_object_iter_valid(i64 %0, ptr %1, i32 noundef %20) #6
  %.not35 = icmp eq i32 %21, 0
  br i1 %.not35, label %.loopexit, label %.lr.ph, !llvm.loop !20

22:                                               ; preds = %.loopexit, %4
  %.fca.1.insert.merged = phi { i64, ptr } [ %5, %4 ], [ %.merged, %.loopexit ]
  ret { i64, ptr } %.fca.1.insert.merged
}